; Function Attrs: mustprogress nounwind uwtable
define internal fastcc void @_ZN12_GLOBAL__N_112StmtProfiler28VisitOpenACCComputeConstructEPKN5clang23OpenACCComputeConstructE(ptr noundef nonnull align 8 dereferenceable(18) %0, ptr noundef %1) unnamed_addr #0 align 2 {
  %3 = alloca %"class.(anonymous namespace)::OpenACCClauseProfiler", align 8
  tail call fastcc void @_ZN12_GLOBAL__N_112StmtProfiler9VisitStmtEPKN5clang4StmtE(ptr noundef nonnull align 8 dereferenceable(18) %0, ptr noundef %1)
  store ptr %0, ptr %3, align 8
  %4 = getelementptr inbounds nuw i8, ptr %1, i64 24
  %.sroa.0.0.copyload.i = load ptr, ptr %4, align 8
  %.sroa.2.0..sroa_idx.i = getelementptr inbounds nuw i8, ptr %1, i64 32
  %.sroa.2.0.copyload.i = load i64, ptr %.sroa.2.0..sroa_idx.i, align 8
  %5 = getelementptr inbounds ptr, ptr %.sroa.0.0.copyload.i, i64 %.sroa.2.0.copyload.i
  %.not.i4 = icmp eq i64 %.sroa.2.0.copyload.i, 0
  br i1 %.not.i4, label %_ZN12_GLOBAL__N_121OpenACCClauseProfiler22VisitOpenACCClauseListEN4llvm8ArrayRefIPKN5clang13OpenACCClauseEEE.exit, label %.lr.ph

.lr.ph:                                           ; preds = %2, %.lr.ph
  %.0.i5 = phi ptr [ %7, %.lr.ph ], [ %.sroa.0.0.copyload.i, %2 ]
  %6 = load ptr, ptr %.0.i5, align 8
  call fastcc void @_ZN5clang20OpenACCClauseVisitorIN12_GLOBAL__N_121OpenACCClauseProfilerEE5VisitEPKNS_13OpenACCClauseE(ptr noundef nonnull align 8 dereferenceable(8) %3, ptr noundef %6)
  %7 = getelementptr inbounds nuw i8, ptr %.0.i5, i64 8
  %.not.i = icmp eq ptr %7, %5
  br i1 %.not.i, label %_ZN12_GLOBAL__N_121OpenACCClauseProfiler22VisitOpenACCClauseListEN4llvm8ArrayRefIPKN5clang13OpenACCClauseEEE.exit, label %.lr.ph

_ZN12_GLOBAL__N_121OpenACCClauseProfiler22VisitOpenACCClauseListEN4llvm8ArrayRefIPKN5clang13OpenACCClauseEEE.exit: ; preds = %.lr.ph, %2
  ret void
}